target datalayout = "e-m:e-p270:32:32-p271:32:32-p272:64:64-i64:64-i128:128-f80:128-n8:16:32:64-S128"
target triple = "x86_64-pc-linux-gnu"

%class.UatModel = type { %class.QAbstractTableModel, ptr, i8, %class.QList, %class.QList.0 }
%class.QAbstractTableModel = type { %class.QAbstractItemModel }
%class.QAbstractItemModel = type { %class.QObject }
%class.QObject = type { ptr, %class.QScopedPointer }
%class.QScopedPointer = type { ptr }
%class.QList = type { %struct.QArrayDataPointer }
%struct.QArrayDataPointer = type { ptr, ptr, i64 }
%class.QList.0 = type { %struct.QArrayDataPointer.3 }
%struct.QArrayDataPointer.3 = type { ptr, ptr, i64 }
%class.QMap = type { %"class.QtPrivate::QExplicitlySharedDataPointerV2" }
%"class.QtPrivate::QExplicitlySharedDataPointerV2" = type { ptr }
%class.QModelIndex = type { i32, i32, i64, ptr }
%class.QMapData = type { %class.QSharedData, %"class.std::map" }
%class.QSharedData = type { %class.QAtomicInt }
%class.QAtomicInt = type { %class.QAtomicInteger }
%class.QAtomicInteger = type { %class.QBasicAtomicInteger }
%class.QBasicAtomicInteger = type { %"struct.std::atomic" }
%"struct.std::atomic" = type { %"struct.std::__atomic_base" }
%"struct.std::__atomic_base" = type { i32 }
%"class.std::map" = type { %"class.std::_Rb_tree" }
%"class.std::_Rb_tree" = type { %"struct.std::_Rb_tree<int, std::pair<const int, QString>, std::_Select1st<std::pair<const int, QString>>, std::less<int>>::_Rb_tree_impl" }
%"struct.std::_Rb_tree<int, std::pair<const int, QString>, std::_Select1st<std::pair<const int, QString>>, std::less<int>>::_Rb_tree_impl" = type { [8 x i8], %"struct.std::_Rb_tree_header" }
%"struct.std::_Rb_tree_header" = type { %"struct.std::_Rb_tree_node_base", i64 }
%"struct.std::_Rb_tree_node_base" = type { i32, ptr, ptr, ptr }

; Function Attrs: mustprogress nounwind null_pointer_is_valid sspstrong uwtable
define linkonce_odr noundef ptr @_ZNK17QArrayDataPointerI4QMapIi7QStringEE4dataEv(ptr noundef align 8 dereferenceable_or_null(24) %0) #2 comdat align 2 {
  %2 = alloca ptr, align 8
  store ptr %0, ptr %2, align 8
  %3 = load ptr, ptr %2, align 8
  %4 = getelementptr inbounds nuw %struct.QArrayDataPointer.3, ptr %3, i32 0, i32 1
  %5 = load ptr, ptr %4, align 8
  ret ptr %5
}

; Function Attrs: mustprogress nounwind null_pointer_is_valid sspstrong uwtable
define linkonce_odr noundef ptr @_ZNK17QArrayDataPointerI4QMapIi7QStringEEptEv(ptr noundef align 8 dereferenceable_or_null(24) %0) #2 comdat align 2 {
  %2 = alloca ptr, align 8
  store ptr %0, ptr %2, align 8
  %3 = load ptr, ptr %2, align 8
  ret ptr %3
}

; Function Attrs: mustprogress nounwind null_pointer_is_valid sspstrong uwtable
define linkonce_odr noundef ptr @_ZNK17QArrayDataPointerIbE4dataEv(ptr noundef align 8 dereferenceable_or_null(24) %0) #2 comdat align 2 {
  %2 = alloca ptr, align 8
  store ptr %0, ptr %2, align 8
  %3 = load ptr, ptr %2, align 8
  %4 = getelementptr inbounds nuw %struct.QArrayDataPointer, ptr %3, i32 0, i32 1
  %5 = load ptr, ptr %4, align 8
  ret ptr %5
}

; Function Attrs: mustprogress nounwind null_pointer_is_valid sspstrong uwtable
define linkonce_odr noundef ptr @_ZNK17QArrayDataPointerIbEptEv(ptr noundef align 8 dereferenceable_or_null(24) %0) #2 comdat align 2 {
  %2 = alloca ptr, align 8
  store ptr %0, ptr %2, align 8
  %3 = load ptr, ptr %2, align 8
  ret ptr %3
}

; Function Attrs: mustprogress nounwind null_pointer_is_valid sspstrong uwtable
define linkonce_odr noundef zeroext i1 @_ZNKSt8_Rb_treeIiSt4pairIKi7QStringESt10_Select1stIS3_ESt4lessIiESaIS3_EE5emptyEv(ptr noundef align 8 dereferenceable_or_null(48) %0) #2 comdat align 2 {
  %2 = alloca ptr, align 8
  store ptr %0, ptr %2, align 8
  %3 = load ptr, ptr %2, align 8
  %4 = getelementptr inbounds nuw %"class.std::_Rb_tree", ptr %3, i32 0, i32 0
  %5 = getelementptr inbounds i8, ptr %4, i64 8
  %6 = getelementptr inbounds nuw %"struct.std::_Rb_tree_header", ptr %5, i32 0, i32 1
  %7 = load i64, ptr %6, align 8
  %8 = icmp eq i64 %7, 0
  ret i1 %8
}

; Function Attrs: mustprogress nounwind null_pointer_is_valid sspstrong uwtable
define linkonce_odr noundef ptr @_ZNK5QListI4QMapIi7QStringEE4dataEv(ptr noundef align 8 dereferenceable_or_null(24) %0) #2 comdat align 2 {
  %2 = alloca ptr, align 8
  store ptr %0, ptr %2, align 8
  %3 = load ptr, ptr %2, align 8
  %4 = getelementptr inbounds nuw %class.QList.0, ptr %3, i32 0, i32 0
  %5 = call noundef ptr @_ZNK17QArrayDataPointerI4QMapIi7QStringEEptEv(ptr noundef align 8 dereferenceable_or_null(24) %4) #23
  %6 = call noundef ptr @_ZNK17QArrayDataPointerI4QMapIi7QStringEE4dataEv(ptr noundef align 8 dereferenceable_or_null(24) %5) #23
  ret ptr %6
}

; Function Attrs: mustprogress nounwind null_pointer_is_valid sspstrong uwtable
define linkonce_odr noundef ptr @_ZNK5QListIbE4dataEv(ptr noundef align 8 dereferenceable_or_null(24) %0) #2 comdat align 2 {
  %2 = alloca ptr, align 8
  store ptr %0, ptr %2, align 8
  %3 = load ptr, ptr %2, align 8
  %4 = getelementptr inbounds nuw %class.QList, ptr %3, i32 0, i32 0
  %5 = call noundef ptr @_ZNK17QArrayDataPointerIbEptEv(ptr noundef align 8 dereferenceable_or_null(24) %4) #23
  %6 = call noundef ptr @_ZNK17QArrayDataPointerIbE4dataEv(ptr noundef align 8 dereferenceable_or_null(24) %5) #23
  ret ptr %6
}

; Function Attrs: mustprogress nounwind null_pointer_is_valid sspstrong uwtable
define linkonce_odr noundef zeroext i1 @_ZNKSt3mapIi7QStringSt4lessIiESaISt4pairIKiS0_EEE5emptyEv(ptr noundef align 8 dereferenceable_or_null(48) %0) #2 comdat align 2 {
  %2 = alloca ptr, align 8
  store ptr %0, ptr %2, align 8
  %3 = load ptr, ptr %2, align 8
  %4 = getelementptr inbounds nuw %"class.std::map", ptr %3, i32 0, i32 0
  %5 = call noundef zeroext i1 @_ZNKSt8_Rb_treeIiSt4pairIKi7QStringESt10_Select1stIS3_ESt4lessIiESaIS3_EE5emptyEv(ptr noundef align 8 dereferenceable_or_null(48) %4) #23
  ret i1 %5
}

; Function Attrs: mustprogress nounwind null_pointer_is_valid sspstrong uwtable
define linkonce_odr noundef ptr @_ZNK9QtPrivate30QExplicitlySharedDataPointerV2I8QMapDataISt3mapIi7QStringSt4lessIiESaISt4pairIKiS3_EEEEEptEv(ptr noundef align 8 dereferenceable_or_null(8) %0) #2 comdat align 2 {
  %2 = alloca ptr, align 8
  store ptr %0, ptr %2, align 8
  %3 = load ptr, ptr %2, align 8
  %4 = getelementptr inbounds nuw %"class.QtPrivate::QExplicitlySharedDataPointerV2", ptr %3, i32 0, i32 0
  %5 = load ptr, ptr %4, align 8
  ret ptr %5
}

; Function Attrs: mustprogress nounwind null_pointer_is_valid sspstrong uwtable
define linkonce_odr noundef zeroext i1 @_ZNK9QtPrivate30QExplicitlySharedDataPointerV2I8QMapDataISt3mapIi7QStringSt4lessIiESaISt4pairIKiS3_EEEEEcvbEv(ptr noundef align 8 dereferenceable_or_null(8) %0) #2 comdat align 2 {
  %2 = alloca ptr, align 8
  store ptr %0, ptr %2, align 8
  %3 = load ptr, ptr %2, align 8
  %4 = getelementptr inbounds nuw %"class.QtPrivate::QExplicitlySharedDataPointerV2", ptr %3, i32 0, i32 0
  %5 = load ptr, ptr %4, align 8
  %6 = icmp ne ptr %5, null
  ret i1 %6
}

; Function Attrs: mustprogress nounwind null_pointer_is_valid sspstrong uwtable
define linkonce_odr noundef align 8 dereferenceable(8) ptr @_ZNK5QListI4QMapIi7QStringEE2atEx(ptr noundef align 8 dereferenceable_or_null(24) %0, i64 noundef %1) #2 comdat align 2 {
  %3 = alloca ptr, align 8
  %4 = alloca i64, align 8
  store ptr %0, ptr %3, align 8
  store i64 %1, ptr %4, align 8
  %5 = load ptr, ptr %3, align 8
  %6 = call noundef ptr @_ZNK5QListI4QMapIi7QStringEE4dataEv(ptr noundef align 8 dereferenceable_or_null(24) %5) #23
  %7 = load i64, ptr %4, align 8
  %8 = getelementptr %class.QMap, ptr %6, i64 %7
  ret ptr %8
}

; Function Attrs: mustprogress nounwind null_pointer_is_valid sspstrong uwtable
define linkonce_odr noundef align 1 dereferenceable(1) ptr @_ZNK5QListIbE2atEx(ptr noundef align 8 dereferenceable_or_null(24) %0, i64 noundef %1) #2 comdat align 2 {
  %3 = alloca ptr, align 8
  %4 = alloca i64, align 8
  store ptr %0, ptr %3, align 8
  store i64 %1, ptr %4, align 8
  %5 = load ptr, ptr %3, align 8
  %6 = call noundef ptr @_ZNK5QListIbE4dataEv(ptr noundef align 8 dereferenceable_or_null(24) %5) #23
  %7 = load i64, ptr %4, align 8
  %8 = getelementptr i8, ptr %6, i64 %7
  ret ptr %8
}

; Function Attrs: mustprogress nounwind null_pointer_is_valid sspstrong uwtable
define linkonce_odr noundef zeroext i1 @_ZNK4QMapIi7QStringE7isEmptyEv(ptr noundef align 8 dereferenceable_or_null(8) %0) #2 comdat align 2 {
  %2 = alloca ptr, align 8
  store ptr %0, ptr %2, align 8
  %3 = load ptr, ptr %2, align 8
  %4 = getelementptr inbounds nuw %class.QMap, ptr %3, i32 0, i32 0
  %5 = call noundef zeroext i1 @_ZNK9QtPrivate30QExplicitlySharedDataPointerV2I8QMapDataISt3mapIi7QStringSt4lessIiESaISt4pairIKiS3_EEEEEcvbEv(ptr noundef align 8 dereferenceable_or_null(8) %4) #23
  br i1 %5, label %6, label %11

6:                                                ; preds = %1
  %7 = getelementptr inbounds nuw %class.QMap, ptr %3, i32 0, i32 0
  %8 = call noundef ptr @_ZNK9QtPrivate30QExplicitlySharedDataPointerV2I8QMapDataISt3mapIi7QStringSt4lessIiESaISt4pairIKiS3_EEEEEptEv(ptr noundef align 8 dereferenceable_or_null(8) %7)
  %9 = getelementptr inbounds nuw %class.QMapData, ptr %8, i32 0, i32 1
  %10 = call noundef zeroext i1 @_ZNKSt3mapIi7QStringSt4lessIiESaISt4pairIKiS0_EEE5emptyEv(ptr noundef align 8 dereferenceable_or_null(48) %9) #23
  br label %12

11:                                               ; preds = %1
  br label %12

12:                                               ; preds = %11, %6
  %13 = phi i1 [ %10, %6 ], [ true, %11 ]
  ret i1 %13
}

; Function Attrs: mustprogress nounwind null_pointer_is_valid sspstrong uwtable
define linkonce_odr noundef align 8 dereferenceable(8) ptr @_ZNK5QListI4QMapIi7QStringEEixEx(ptr noundef align 8 dereferenceable_or_null(24) %0, i64 noundef %1) #2 comdat align 2 {
  %3 = alloca ptr, align 8
  %4 = alloca i64, align 8
  store ptr %0, ptr %3, align 8
  store i64 %1, ptr %4, align 8
  %5 = load ptr, ptr %3, align 8
  %6 = load i64, ptr %4, align 8
  %7 = call noundef align 8 dereferenceable(8) ptr @_ZNK5QListI4QMapIi7QStringEE2atEx(ptr noundef align 8 dereferenceable_or_null(24) %5, i64 noundef %6) #23
  ret ptr %7
}

; Function Attrs: mustprogress nounwind null_pointer_is_valid sspstrong uwtable
define linkonce_odr noundef align 1 dereferenceable(1) ptr @_ZNK5QListIbEixEx(ptr noundef align 8 dereferenceable_or_null(24) %0, i64 noundef %1) #2 comdat align 2 {
  %3 = alloca ptr, align 8
  %4 = alloca i64, align 8
  store ptr %0, ptr %3, align 8
  store i64 %1, ptr %4, align 8
  %5 = load ptr, ptr %3, align 8
  %6 = load i64, ptr %4, align 8
  %7 = call noundef align 1 dereferenceable(1) ptr @_ZNK5QListIbE2atEx(ptr noundef align 8 dereferenceable_or_null(24) %5, i64 noundef %6) #23
  ret ptr %7
}

; Function Attrs: inlinehint mustprogress nounwind null_pointer_is_valid sspstrong uwtable
define linkonce_odr void @_ZN11QModelIndexC2Ev(ptr noundef align 8 dereferenceable_or_null(24) %0) unnamed_addr #3 comdat align 2 {
  %2 = alloca ptr, align 8
  store ptr %0, ptr %2, align 8
  %3 = load ptr, ptr %2, align 8
  %4 = getelementptr inbounds nuw %class.QModelIndex, ptr %3, i32 0, i32 0
  store i32 -1, ptr %4, align 8
  %5 = getelementptr inbounds nuw %class.QModelIndex, ptr %3, i32 0, i32 1
  store i32 -1, ptr %5, align 4
  %6 = getelementptr inbounds nuw %class.QModelIndex, ptr %3, i32 0, i32 2
  store i64 0, ptr %6, align 8
  %7 = getelementptr inbounds nuw %class.QModelIndex, ptr %3, i32 0, i32 3
  store ptr null, ptr %7, align 8
  ret void
}

; Function Attrs: mustprogress null_pointer_is_valid sspstrong uwtable
define noundef zeroext i1 @_ZNK8UatModel9hasErrorsEv(ptr noundef align 8 dereferenceable_or_null(80) %0) #0 align 2 {
  %2 = alloca i1, align 1
  %3 = alloca ptr, align 8
  %4 = alloca i32, align 4
  %5 = alloca %class.QModelIndex, align 8
  %6 = alloca i32, align 4
  store ptr %0, ptr %3, align 8
  %7 = load ptr, ptr %3, align 8
  call void @llvm.lifetime.start.p0(i64 4, ptr %4) #23
  store i32 0, ptr %4, align 4
  br label %8

8:                                                ; preds = %31, %1
  %9 = load i32, ptr %4, align 4
  call void @llvm.lifetime.start.p0(i64 24, ptr %5) #23
  call void @_ZN11QModelIndexC2Ev(ptr noundef align 8 dereferenceable_or_null(24) %5) #23
  %10 = load ptr, ptr %7, align 8
  %11 = getelementptr inbounds ptr, ptr %10, i64 15
  %12 = load ptr, ptr %11, align 8
  %13 = call noundef i32 %12(ptr noundef align 8 dereferenceable_or_null(80) %7, ptr noundef align 8 dereferenceable(24) %5)
  %14 = icmp slt i32 %9, %13
  call void @llvm.lifetime.end.p0(i64 24, ptr %5) #23
  br i1 %14, label %16, label %15

15:                                               ; preds = %8
  store i32 2, ptr %6, align 4
  br label %34

16:                                               ; preds = %8
  %17 = getelementptr inbounds nuw %class.UatModel, ptr %7, i32 0, i32 3
  %18 = load i32, ptr %4, align 4
  %19 = sext i32 %18 to i64
  %20 = call noundef align 1 dereferenceable(1) ptr @_ZNK5QListIbEixEx(ptr noundef align 8 dereferenceable_or_null(24) %17, i64 noundef %19) #23
  %21 = load i8, ptr %20, align 1, !range !8, !noundef !9
  %22 = trunc i8 %21 to i1
  br i1 %22, label %23, label %30

23:                                               ; preds = %16
  %24 = getelementptr inbounds nuw %class.UatModel, ptr %7, i32 0, i32 4
  %25 = load i32, ptr %4, align 4
  %26 = sext i32 %25 to i64
  %27 = call noundef align 8 dereferenceable(8) ptr @_ZNK5QListI4QMapIi7QStringEEixEx(ptr noundef align 8 dereferenceable_or_null(24) %24, i64 noundef %26) #23
  %28 = call noundef zeroext i1 @_ZNK4QMapIi7QStringE7isEmptyEv(ptr noundef align 8 dereferenceable_or_null(8) %27)
  br i1 %28, label %30, label %29

29:                                               ; preds = %23
  store i1 true, ptr %2, align 1
  store i32 1, ptr %6, align 4
  br label %34

30:                                               ; preds = %23, %16
  br label %31

31:                                               ; preds = %30
  %32 = load i32, ptr %4, align 4
  %33 = add i32 %32, 1
  store i32 %33, ptr %4, align 4
  br label %8, !llvm.loop !17

34:                                               ; preds = %29, %15
  call void @llvm.lifetime.end.p0(i64 4, ptr %4) #23
  %35 = load i32, ptr %6, align 4
  switch i32 %35, label %39 [
    i32 2, label %36
    i32 1, label %37
  ]

36:                                               ; preds = %34
  store i1 false, ptr %2, align 1
  br label %37

37:                                               ; preds = %36, %34
  %38 = load i1, ptr %2, align 1
  ret i1 %38

39:                                               ; preds = %34
  unreachable
}