; Function Attrs: mustprogress null_pointer_is_valid sspstrong uwtable
define noundef zeroext i1 @_ZNK8UatModel9hasErrorsEv(ptr noundef align 8 dereferenceable_or_null(80) %0) local_unnamed_addr #0 align 2 {
  %2 = alloca %class.QModelIndex, align 8
  %3 = getelementptr inbounds nuw i8, ptr %2, i64 4
  %4 = getelementptr inbounds nuw i8, ptr %2, i64 8
  call void @llvm.lifetime.start.p0(i64 24, ptr nonnull %2) #24
  store i32 -1, ptr %2, align 8
  store i32 -1, ptr %3, align 4
  call void @llvm.memset.p0.i64(ptr noundef nonnull align 8 dereferenceable(16) %4, i8 0, i64 16, i1 false)
  %5 = load ptr, ptr %0, align 8
  %6 = getelementptr inbounds nuw i8, ptr %5, i64 120
  %7 = load ptr, ptr %6, align 8
  %8 = call noundef i32 %7(ptr noundef align 8 dereferenceable_or_null(80) %0, ptr noundef nonnull align 8 dereferenceable(24) %2)
  %.not8 = icmp sgt i32 %8, 0
  call void @llvm.lifetime.end.p0(i64 24, ptr nonnull %2) #24
  br i1 %.not8, label %.lr.ph, label %_ZNK4QMapIi7QStringE7isEmptyEv.exit._crit_edge

.lr.ph:                                           ; preds = %1
  %9 = getelementptr inbounds nuw i8, ptr %0, i64 40
  %10 = getelementptr inbounds nuw i8, ptr %0, i64 64
  br label %11

11:                                               ; preds = %.lr.ph, %_ZNK4QMapIi7QStringE7isEmptyEv.exit.thread
  %indvars.iv = phi i64 [ 0, %.lr.ph ], [ %indvars.iv.next, %_ZNK4QMapIi7QStringE7isEmptyEv.exit.thread ]
  %12 = load ptr, ptr %9, align 8
  %13 = getelementptr i8, ptr %12, i64 %indvars.iv
  %14 = load i8, ptr %13, align 1, !range !14, !noundef !15
  %15 = trunc nuw i8 %14 to i1
  br i1 %15, label %16, label %_ZNK4QMapIi7QStringE7isEmptyEv.exit.thread

16:                                               ; preds = %11
  %17 = load ptr, ptr %10, align 8
  %18 = getelementptr %class.QMap, ptr %17, i64 %indvars.iv
  %19 = load ptr, ptr %18, align 8
  %.not.i = icmp eq ptr %19, null
  br i1 %.not.i, label %_ZNK4QMapIi7QStringE7isEmptyEv.exit.thread, label %_ZNK4QMapIi7QStringE7isEmptyEv.exit

_ZNK4QMapIi7QStringE7isEmptyEv.exit:              ; preds = %16
  %20 = getelementptr inbounds nuw i8, ptr %19, i64 48
  %21 = load i64, ptr %20, align 8
  %22 = icmp eq i64 %21, 0
  br i1 %22, label %_ZNK4QMapIi7QStringE7isEmptyEv.exit.thread, label %_ZNK4QMapIi7QStringE7isEmptyEv.exit._crit_edge

_ZNK4QMapIi7QStringE7isEmptyEv.exit.thread:       ; preds = %16, %11, %_ZNK4QMapIi7QStringE7isEmptyEv.exit
  %indvars.iv.next = add nuw nsw i64 %indvars.iv, 1
  call void @llvm.lifetime.start.p0(i64 24, ptr nonnull %2) #24
  store i32 -1, ptr %2, align 8
  store i32 -1, ptr %3, align 4
  call void @llvm.memset.p0.i64(ptr noundef nonnull align 8 dereferenceable(16) %4, i8 0, i64 16, i1 false)
  %23 = load ptr, ptr %0, align 8
  %24 = getelementptr inbounds nuw i8, ptr %23, i64 120
  %25 = load ptr, ptr %24, align 8
  %26 = call noundef i32 %25(ptr noundef align 8 dereferenceable_or_null(80) %0, ptr noundef nonnull align 8 dereferenceable(24) %2)
  %27 = sext i32 %26 to i64
  %.not = icmp slt i64 %indvars.iv.next, %27
  call void @llvm.lifetime.end.p0(i64 24, ptr nonnull %2) #24
  br i1 %.not, label %11, label %_ZNK4QMapIi7QStringE7isEmptyEv.exit._crit_edge, !llvm.loop !34

_ZNK4QMapIi7QStringE7isEmptyEv.exit._crit_edge:   ; preds = %_ZNK4QMapIi7QStringE7isEmptyEv.exit.thread, %_ZNK4QMapIi7QStringE7isEmptyEv.exit, %1
  %.not.lcssa = phi i1 [ false, %1 ], [ true, %_ZNK4QMapIi7QStringE7isEmptyEv.exit ], [ false, %_ZNK4QMapIi7QStringE7isEmptyEv.exit.thread ]
  ret i1 %.not.lcssa
}